target datalayout = "e-m:e-p270:32:32-p271:32:32-p272:64:64-i64:64-i128:128-f80:128-n8:16:32:64-S128"
target triple = "x86_64-pc-linux-gnu"

%struct._lv_image_header_cache_data_t = type { ptr, i32, %struct.lv_image_header_t, ptr }
%struct.lv_image_header_t = type <{ i64, i32 }>

; Function Attrs: inlinehint nounwind uwtable
define internal signext i8 @image_cache_common_compare(ptr noundef %0, i32 noundef %1, ptr noundef %2, i32 noundef %3) #4 {
  %5 = alloca i8, align 1
  %6 = alloca ptr, align 8
  %7 = alloca i32, align 4
  %8 = alloca ptr, align 8
  %9 = alloca i32, align 4
  %10 = alloca i32, align 4
  %11 = alloca i32, align 4
  store ptr %0, ptr %6, align 8, !tbaa !42
  store i32 %1, ptr %7, align 4, !tbaa !3
  store ptr %2, ptr %8, align 8, !tbaa !42
  store i32 %3, ptr %9, align 4, !tbaa !3
  %12 = load i32, ptr %7, align 4, !tbaa !3
  %13 = load i32, ptr %9, align 4, !tbaa !3
  %14 = icmp eq i32 %12, %13
  br i1 %14, label %15, label %49

15:                                               ; preds = %4
  %16 = load i32, ptr %7, align 4, !tbaa !3
  %17 = icmp eq i32 %16, 1
  br i1 %17, label %18, label %33

18:                                               ; preds = %15
  call void @llvm.lifetime.start.p0(i64 4, ptr %10) #5
  %19 = load ptr, ptr %6, align 8, !tbaa !42
  %20 = load ptr, ptr %8, align 8, !tbaa !42
  %21 = call i32 @lv_strcmp(ptr noundef %19, ptr noundef %20)
  store i32 %21, ptr %10, align 4, !tbaa !3
  %22 = load i32, ptr %10, align 4, !tbaa !3
  %23 = icmp ne i32 %22, 0
  br i1 %23, label %24, label %29

24:                                               ; preds = %18
  %25 = load i32, ptr %10, align 4, !tbaa !3
  %26 = icmp sgt i32 %25, 0
  %27 = select i1 %26, i32 1, i32 -1
  %28 = trunc i32 %27 to i8
  store i8 %28, ptr %5, align 1
  store i32 1, ptr %11, align 4
  br label %30

29:                                               ; preds = %18
  store i32 0, ptr %11, align 4
  br label %30

30:                                               ; preds = %29, %24
  call void @llvm.lifetime.end.p0(i64 4, ptr %10) #5
  %31 = load i32, ptr %11, align 4
  switch i32 %31, label %57 [
    i32 0, label %32
    i32 1, label %55
  ]

32:                                               ; preds = %30
  br label %48

33:                                               ; preds = %15
  %34 = load i32, ptr %7, align 4, !tbaa !3
  %35 = icmp eq i32 %34, 0
  br i1 %35, label %36, label %47

36:                                               ; preds = %33
  %37 = load ptr, ptr %6, align 8, !tbaa !42
  %38 = load ptr, ptr %8, align 8, !tbaa !42
  %39 = icmp ne ptr %37, %38
  br i1 %39, label %40, label %46

40:                                               ; preds = %36
  %41 = load ptr, ptr %6, align 8, !tbaa !42
  %42 = load ptr, ptr %8, align 8, !tbaa !42
  %43 = icmp ugt ptr %41, %42
  %44 = select i1 %43, i32 1, i32 -1
  %45 = trunc i32 %44 to i8
  store i8 %45, ptr %5, align 1
  br label %55

46:                                               ; preds = %36
  br label %47

47:                                               ; preds = %46, %33
  br label %48

48:                                               ; preds = %47, %32
  store i8 0, ptr %5, align 1
  br label %55

49:                                               ; preds = %4
  %50 = load i32, ptr %7, align 4, !tbaa !3
  %51 = load i32, ptr %9, align 4, !tbaa !3
  %52 = icmp ugt i32 %50, %51
  %53 = select i1 %52, i32 1, i32 -1
  %54 = trunc i32 %53 to i8
  store i8 %54, ptr %5, align 1
  br label %55

55:                                               ; preds = %49, %48, %40, %30
  %56 = load i8, ptr %5, align 1
  ret i8 %56

57:                                               ; preds = %30
  unreachable
}

; Function Attrs: nounwind uwtable
define internal signext i8 @image_header_cache_compare_cb(ptr noundef %0, ptr noundef %1) #0 {
  %3 = alloca ptr, align 8
  %4 = alloca ptr, align 8
  store ptr %0, ptr %3, align 8, !tbaa !35
  store ptr %1, ptr %4, align 8, !tbaa !35
  %5 = load ptr, ptr %3, align 8, !tbaa !35
  %6 = getelementptr inbounds nuw %struct._lv_image_header_cache_data_t, ptr %5, i32 0, i32 0
  %7 = load ptr, ptr %6, align 8, !tbaa !37
  %8 = load ptr, ptr %3, align 8, !tbaa !35
  %9 = getelementptr inbounds nuw %struct._lv_image_header_cache_data_t, ptr %8, i32 0, i32 1
  %10 = load i32, ptr %9, align 8, !tbaa !41
  %11 = load ptr, ptr %4, align 8, !tbaa !35
  %12 = getelementptr inbounds nuw %struct._lv_image_header_cache_data_t, ptr %11, i32 0, i32 0
  %13 = load ptr, ptr %12, align 8, !tbaa !37
  %14 = load ptr, ptr %4, align 8, !tbaa !35
  %15 = getelementptr inbounds nuw %struct._lv_image_header_cache_data_t, ptr %14, i32 0, i32 1
  %16 = load i32, ptr %15, align 8, !tbaa !41
  %17 = call signext i8 @image_cache_common_compare(ptr noundef %7, i32 noundef %10, ptr noundef %13, i32 noundef %16)
  ret i8 %17
}