; Function Attrs: nounwind uwtable
define internal signext range(i8 -1, 2) i8 @image_header_cache_compare_cb(ptr noundef readonly captures(none) %0, ptr noundef readonly captures(none) %1) #0 {
  %3 = load ptr, ptr %0, align 8, !tbaa !34
  %4 = getelementptr inbounds nuw i8, ptr %0, i64 8
  %5 = load i32, ptr %4, align 8, !tbaa !38
  %6 = load ptr, ptr %1, align 8, !tbaa !34
  %7 = getelementptr inbounds nuw i8, ptr %1, i64 8
  %8 = load i32, ptr %7, align 8, !tbaa !38
  %9 = icmp eq i32 %5, %8
  br i1 %9, label %10, label %19

10:                                               ; preds = %2
  switch i32 %5, label %18 [
    i32 1, label %11
    i32 0, label %14
  ]

11:                                               ; preds = %10
  %12 = tail call i32 @lv_strcmp(ptr noundef %3, ptr noundef %6) #4
  %.not21.not.i = icmp eq i32 %12, 0
  %.inv.i = icmp slt i32 %12, 1
  %13 = select i1 %.inv.i, i8 -1, i8 1
  br i1 %.not21.not.i, label %18, label %image_cache_common_compare.exit

14:                                               ; preds = %10
  %.not.i = icmp eq ptr %3, %6
  br i1 %.not.i, label %18, label %15

15:                                               ; preds = %14
  %16 = icmp ugt ptr %3, %6
  %17 = select i1 %16, i8 1, i8 -1
  br label %image_cache_common_compare.exit

18:                                               ; preds = %14, %11, %10
  br label %image_cache_common_compare.exit

19:                                               ; preds = %2
  %20 = icmp ugt i32 %5, %8
  %21 = select i1 %20, i8 1, i8 -1
  br label %image_cache_common_compare.exit

image_cache_common_compare.exit:                  ; preds = %11, %15, %18, %19
  %.1.i = phi i8 [ %13, %11 ], [ 0, %18 ], [ %17, %15 ], [ %21, %19 ]
  ret i8 %.1.i
}